target datalayout = "e-m:e-p270:32:32-p271:32:32-p272:64:64-i64:64-i128:128-f80:128-n8:16:32:64-S128"
target triple = "x86_64-pc-linux-gnu"

%"class.nanobind::handle" = type { ptr }
%class.anon.21 = type { i8 }
%"class.std::chrono::time_point" = type { %"class.std::chrono::duration" }
%"class.std::chrono::duration" = type { i64 }

; Function Attrs: alwaysinline mustprogress nounwind optsize uwtable
define linkonce_odr hidden noundef ptr @_ZNK8nanobind6handle3ptrEv(ptr noundef nonnull align 8 dereferenceable(8) %0) #5 comdat align 2 {
  %2 = alloca ptr, align 8
  store ptr %0, ptr %2, align 8, !tbaa !12
  %3 = load ptr, ptr %2, align 8
  %4 = getelementptr inbounds nuw %"class.nanobind::handle", ptr %3, i32 0, i32 0
  %5 = load ptr, ptr %4, align 8, !tbaa !14
  ret ptr %5
}

; Function Attrs: inlinehint mustprogress nounwind optsize uwtable
define internal i64 @"_ZZL29nanobind_init_test_chrono_extRN8nanobind7module_EENK3$_0clEv"(ptr noundef nonnull align 1 dereferenceable(1) %0) #11 align 2 {
  %2 = alloca %"class.std::chrono::time_point", align 8
  %3 = alloca ptr, align 8
  store ptr %0, ptr %3, align 8, !tbaa !28
  %4 = call i64 @_ZNSt6chrono3_V212system_clock3nowEv() #17
  %5 = getelementptr inbounds nuw %"class.std::chrono::time_point", ptr %2, i32 0, i32 0
  %6 = getelementptr inbounds nuw %"class.std::chrono::duration", ptr %5, i32 0, i32 0
  store i64 %4, ptr %6, align 8
  %7 = getelementptr inbounds nuw %"class.std::chrono::time_point", ptr %2, i32 0, i32 0
  %8 = getelementptr inbounds nuw %"class.std::chrono::duration", ptr %7, i32 0, i32 0
  %9 = load i64, ptr %8, align 8
  ret i64 %9
}

; Function Attrs: alwaysinline mustprogress optsize uwtable
define internal noundef ptr @"_ZZN8nanobind6detail11func_createILb0ELb1EZL29nanobind_init_test_chrono_extRNS_7module_EE3$_0NSt6chrono10time_pointINS5_3_V212system_clockENS5_8durationIlSt5ratioILl1ELl1000000000EEEEEEJETpTnmJEJNS_5scopeENS_4nameEEEEP7_objectOT1_PFT2_DpT3_ESt16integer_sequenceImJXspT4_EEEDpRKT5_ENKUlPvPSH_PhNS_9rv_policyEPNS0_12cleanup_listEE_clESV_SW_SX_SY_S10_"(ptr noundef nonnull align 1 dereferenceable(1) %0, ptr noundef %1, ptr noundef %2, ptr noundef %3, i32 noundef %4, ptr noundef %5) #3 align 2 {
  %7 = alloca ptr, align 8
  %8 = alloca ptr, align 8
  %9 = alloca ptr, align 8
  %10 = alloca ptr, align 8
  %11 = alloca i32, align 4
  %12 = alloca ptr, align 8
  %13 = alloca ptr, align 8
  %14 = alloca ptr, align 8
  %15 = alloca %"class.nanobind::handle", align 8
  %16 = alloca %"class.std::chrono::time_point", align 8
  store ptr %0, ptr %7, align 8, !tbaa !28
  store ptr %1, ptr %8, align 8, !tbaa !28
  store ptr %2, ptr %9, align 8, !tbaa !106
  store ptr %3, ptr %10, align 8, !tbaa !26
  store i32 %4, ptr %11, align 4, !tbaa !108
  store ptr %5, ptr %12, align 8, !tbaa !110
  call void @llvm.lifetime.start.p0(i64 8, ptr %13) #16
  %17 = load ptr, ptr %8, align 8, !tbaa !28
  store ptr %17, ptr %13, align 8, !tbaa !89
  call void @llvm.lifetime.start.p0(i64 8, ptr %14) #16
  call void @llvm.lifetime.start.p0(i64 8, ptr %15) #16
  call void @llvm.lifetime.start.p0(i64 8, ptr %16) #16
  %18 = load ptr, ptr %13, align 8, !tbaa !89
  %19 = call i64 @"_ZZL29nanobind_init_test_chrono_extRN8nanobind7module_EENK3$_0clEv"(ptr noundef nonnull align 1 dereferenceable(1) %18) #15
  %20 = getelementptr inbounds nuw %"class.std::chrono::time_point", ptr %16, i32 0, i32 0
  %21 = getelementptr inbounds nuw %"class.std::chrono::duration", ptr %20, i32 0, i32 0
  store i64 %19, ptr %21, align 8
  %22 = load i32, ptr %11, align 4, !tbaa !108
  %23 = load ptr, ptr %12, align 8, !tbaa !110
  %24 = call ptr @_ZN8nanobind6detail11type_casterINSt6chrono10time_pointINS2_3_V212system_clockENS2_8durationIlSt5ratioILl1ELl1000000000EEEEEEiE8from_cppERKSA_NS_9rv_policyEPNS0_12cleanup_listE(ptr noundef nonnull align 8 dereferenceable(8) %16, i32 noundef %22, ptr noundef %23) #17
  %25 = getelementptr inbounds nuw %"class.nanobind::handle", ptr %15, i32 0, i32 0
  store ptr %24, ptr %25, align 8
  %26 = call noundef ptr @_ZNK8nanobind6handle3ptrEv(ptr noundef nonnull align 8 dereferenceable(8) %15) #15
  store ptr %26, ptr %14, align 8, !tbaa !3
  call void @llvm.lifetime.end.p0(i64 8, ptr %16) #16
  call void @llvm.lifetime.end.p0(i64 8, ptr %15) #16
  %27 = load ptr, ptr %14, align 8, !tbaa !3
  call void @llvm.lifetime.end.p0(i64 8, ptr %14) #16
  call void @llvm.lifetime.end.p0(i64 8, ptr %13) #16
  ret ptr %27
}

; Function Attrs: inlinehint mustprogress optsize uwtable
define internal noundef ptr @"_ZZN8nanobind6detail11func_createILb0ELb1EZL29nanobind_init_test_chrono_extRNS_7module_EE3$_0NSt6chrono10time_pointINS5_3_V212system_clockENS5_8durationIlSt5ratioILl1ELl1000000000EEEEEEJETpTnmJEJNS_5scopeENS_4nameEEEEP7_objectOT1_PFT2_DpT3_ESt16integer_sequenceImJXspT4_EEEDpRKT5_ENUlPvPSH_PhNS_9rv_policyEPNS0_12cleanup_listEE_8__invokeESV_SW_SX_SY_S10_"(ptr noundef %0, ptr noundef %1, ptr noundef %2, i32 noundef %3, ptr noundef %4) #9 align 2 {
  %6 = alloca ptr, align 8
  %7 = alloca ptr, align 8
  %8 = alloca ptr, align 8
  %9 = alloca i32, align 4
  %10 = alloca ptr, align 8
  %11 = alloca %class.anon.21, align 1
  store ptr %0, ptr %6, align 8, !tbaa !28
  store ptr %1, ptr %7, align 8, !tbaa !106
  store ptr %2, ptr %8, align 8, !tbaa !26
  store i32 %3, ptr %9, align 4, !tbaa !108
  store ptr %4, ptr %10, align 8, !tbaa !110
  %12 = load ptr, ptr %6, align 8, !tbaa !28
  %13 = load ptr, ptr %7, align 8, !tbaa !106
  %14 = load ptr, ptr %8, align 8, !tbaa !26
  %15 = load i32, ptr %9, align 4, !tbaa !108
  %16 = load ptr, ptr %10, align 8, !tbaa !110
  %17 = call noundef ptr @"_ZZN8nanobind6detail11func_createILb0ELb1EZL29nanobind_init_test_chrono_extRNS_7module_EE3$_0NSt6chrono10time_pointINS5_3_V212system_clockENS5_8durationIlSt5ratioILl1ELl1000000000EEEEEEJETpTnmJEJNS_5scopeENS_4nameEEEEP7_objectOT1_PFT2_DpT3_ESt16integer_sequenceImJXspT4_EEEDpRKT5_ENKUlPvPSH_PhNS_9rv_policyEPNS0_12cleanup_listEE_clESV_SW_SX_SY_S10_"(ptr noundef nonnull align 1 dereferenceable(1) %11, ptr noundef %12, ptr noundef %13, ptr noundef %14, i32 noundef %15, ptr noundef %16) #15
  ret ptr %17
}